target datalayout = "e-m:e-p270:32:32-p271:32:32-p272:64:64-i64:64-i128:128-f80:128-n8:16:32:64-S128"
target triple = "x86_64-pc-linux-gnu"

@.str.14 = private unnamed_addr constant [35 x i8] c"../openssl/test/asn1_decode_test.c\00", align 1
@t_invalid_template = internal global [5 x i8] c"0\03\0C\01A", align 1
@.str.17 = private unnamed_addr constant [4 x i8] c"tmp\00", align 1
@INVALIDTEMPLATE_it.local_it = internal constant { i8, [7 x i8], i64, ptr, i64, ptr, i64, ptr } { i8 1, [7 x i8] zeroinitializer, i64 16, ptr @INVALIDTEMPLATE_seq_tt, i64 1, ptr null, i64 8, ptr @.str.18 }, align 8

; Function Attrs: nounwind uwtable
define internal ptr @INVALIDTEMPLATE_it() #0 {
  ret ptr @INVALIDTEMPLATE_it.local_it
}

; Function Attrs: nounwind uwtable
define internal void @INVALIDTEMPLATE_free(ptr noundef %0) #0 {
  %2 = alloca ptr, align 8
  store ptr %0, ptr %2, align 8, !tbaa !9
  %3 = load ptr, ptr %2, align 8, !tbaa !9
  %4 = call ptr @INVALIDTEMPLATE_it()
  call void @ASN1_item_free(ptr noundef %3, ptr noundef %4)
  ret void
}

; Function Attrs: nounwind uwtable
define internal ptr @d2i_INVALIDTEMPLATE(ptr noundef %0, ptr noundef %1, i64 noundef %2) #0 {
  %4 = alloca ptr, align 8
  %5 = alloca ptr, align 8
  %6 = alloca i64, align 8
  store ptr %0, ptr %4, align 8, !tbaa !9
  store ptr %1, ptr %5, align 8, !tbaa !16
  store i64 %2, ptr %6, align 8, !tbaa !18
  %7 = load ptr, ptr %4, align 8, !tbaa !9
  %8 = load ptr, ptr %5, align 8, !tbaa !16
  %9 = load i64, ptr %6, align 8, !tbaa !18
  %10 = call ptr @INVALIDTEMPLATE_it()
  %11 = call ptr @ASN1_item_d2i(ptr noundef %7, ptr noundef %8, i64 noundef %9, ptr noundef %10)
  ret ptr %11
}

; Function Attrs: nounwind uwtable
define internal i32 @test_invalid_template() #0 {
  %1 = alloca i32, align 4
  %2 = alloca ptr, align 8
  %3 = alloca ptr, align 8
  %4 = alloca i32, align 4
  call void @llvm.lifetime.start.p0(i64 8, ptr %2) #4
  store ptr @t_invalid_template, ptr %2, align 8, !tbaa !4
  call void @llvm.lifetime.start.p0(i64 8, ptr %3) #4
  %5 = call ptr @d2i_INVALIDTEMPLATE(ptr noundef null, ptr noundef %2, i64 noundef 5)
  store ptr %5, ptr %3, align 8, !tbaa !9
  %6 = load ptr, ptr %3, align 8, !tbaa !9
  %7 = call i32 @test_ptr_null(ptr noundef @.str.14, i32 noundef 243, ptr noundef @.str.17, ptr noundef %6)
  %8 = icmp ne i32 %7, 0
  br i1 %8, label %9, label %10

9:                                                ; preds = %0
  store i32 1, ptr %1, align 4
  store i32 1, ptr %4, align 4
  br label %12

10:                                               ; preds = %0
  %11 = load ptr, ptr %3, align 8, !tbaa !9
  call void @INVALIDTEMPLATE_free(ptr noundef %11)
  store i32 0, ptr %1, align 4
  store i32 1, ptr %4, align 4
  br label %12

12:                                               ; preds = %10, %9
  call void @llvm.lifetime.end.p0(i64 8, ptr %3) #4
  call void @llvm.lifetime.end.p0(i64 8, ptr %2) #4
  %13 = load i32, ptr %1, align 4
  ret i32 %13
}