; Function Attrs: nounwind uwtable
define internal range(i32 0, 2) i32 @test_invalid_template() #0 {
  %1 = alloca ptr, align 8
  call void @llvm.lifetime.start.p0(i64 8, ptr nonnull %1) #4
  store ptr @t_invalid_template, ptr %1, align 8, !tbaa !4
  %2 = call ptr @ASN1_item_d2i(ptr noundef null, ptr noundef nonnull %1, i64 noundef 5, ptr noundef nonnull @INVALIDTEMPLATE_it.local_it) #4
  %3 = call i32 @test_ptr_null(ptr noundef nonnull @.str.14, i32 noundef 243, ptr noundef nonnull @.str.17, ptr noundef %2) #4
  %.not = icmp eq i32 %3, 0
  br i1 %.not, label %4, label %5

4:                                                ; preds = %0
  call void @ASN1_item_free(ptr noundef %2, ptr noundef nonnull @INVALIDTEMPLATE_it.local_it) #4
  br label %5

5:                                                ; preds = %0, %4
  %.0 = phi i32 [ 0, %4 ], [ 1, %0 ]
  call void @llvm.lifetime.end.p0(i64 8, ptr nonnull %1) #4
  ret i32 %.0
}